; Function Attrs: mustprogress uwtable
define void @_ZN7testing32ScopedFakeTestPartResultReporter20ReportTestPartResultERKNS_14TestPartResultE(ptr noundef nonnull readonly align 8 captures(none) dereferenceable(32) %0, ptr noundef nonnull align 8 dereferenceable(112) %1) unnamed_addr #3 align 2 {
  %3 = getelementptr inbounds nuw i8, ptr %0, i64 24
  %4 = load ptr, ptr %3, align 8, !tbaa !748
  %5 = getelementptr inbounds nuw i8, ptr %4, i64 8
  %6 = load ptr, ptr %5, align 8, !tbaa !605
  %7 = getelementptr inbounds nuw i8, ptr %4, i64 16
  %8 = load ptr, ptr %7, align 8, !tbaa !606
  %.not.i.i = icmp eq ptr %6, %8
  br i1 %.not.i.i, label %12, label %9

9:                                                ; preds = %2
  tail call void @_ZN7testing14TestPartResultC2ERKS0_(ptr noundef nonnull align 8 dereferenceable(112) %6, ptr noundef nonnull align 8 dereferenceable(112) %1)
  %10 = load ptr, ptr %5, align 8, !tbaa !605
  %11 = getelementptr inbounds nuw i8, ptr %10, i64 112
  store ptr %11, ptr %5, align 8, !tbaa !605
  br label %_ZN7testing19TestPartResultArray6AppendERKNS_14TestPartResultE.exit

12:                                               ; preds = %2
  tail call void @_ZNSt6vectorIN7testing14TestPartResultESaIS1_EE17_M_realloc_insertIJRKS1_EEEvN9__gnu_cxx17__normal_iteratorIPS1_S3_EEDpOT_(ptr noundef nonnull align 8 dereferenceable(24) %4, ptr %6, ptr noundef nonnull align 8 dereferenceable(112) %1)
  br label %_ZN7testing19TestPartResultArray6AppendERKNS_14TestPartResultE.exit

_ZN7testing19TestPartResultArray6AppendERKNS_14TestPartResultE.exit: ; preds = %9, %12
  ret void
}